target datalayout = "e-m:e-p270:32:32-p271:32:32-p272:64:64-i64:64-i128:128-f80:128-n8:16:32:64-S128"
target triple = "x86_64-pc-linux-gnu"

%struct._Node = type { %union.anon.35 }
%union.anon.35 = type { %struct.BagNode }
%struct.BagNode = type { i32, i32, ptr, ptr, i32, %union.anon.37, i32, i32, i32, i32, i32 }
%union.anon.37 = type { %struct.anon.40 }
%struct.anon.40 = type { ptr, ptr }
%struct.anon.36 = type { i32, i32, ptr, ptr }
%struct.ConsAltNode = type { i32, i32, ptr, ptr, ptr }
%struct.StrNode = type { i32, i32, ptr, ptr, ptr, i32, [24 x i8], i32 }
%struct.CtypeNode = type { i32, i32, ptr, i32, i32, i32 }
%struct.QuantNode = type { i32, i32, ptr, ptr, i32, i32, i32, i32, ptr, ptr, i32, i32 }
%struct.AnchorNode = type { i32, i32, ptr, ptr, i32, i32, i32, i32, ptr }

; Function Attrs: nounwind uwtable
define internal i32 @mostly_just_anychar(ptr noundef %0, i32 noundef %1) #0 {
  %3 = alloca ptr, align 8
  %4 = alloca i32, align 4
  %5 = alloca i32, align 4
  %6 = alloca i32, align 4
  %7 = alloca ptr, align 8
  %8 = alloca ptr, align 8
  %9 = alloca i32, align 4
  store ptr %0, ptr %3, align 8, !tbaa !47
  store i32 %1, ptr %4, align 4, !tbaa !4
  call void @llvm.lifetime.start.p0(i64 4, ptr %5) #9
  store i32 0, ptr %5, align 4, !tbaa !4
  %10 = load ptr, ptr %3, align 8, !tbaa !47
  %11 = getelementptr inbounds nuw %struct._Node, ptr %10, i32 0, i32 0
  %12 = getelementptr inbounds nuw %struct.anon.36, ptr %11, i32 0, i32 0
  %13 = load i32, ptr %12, align 8, !tbaa !32
  switch i32 %13, label %184 [
    i32 7, label %14
    i32 8, label %45
    i32 4, label %64
    i32 6, label %100
    i32 5, label %108
    i32 2, label %157
    i32 0, label %166
    i32 1, label %182
    i32 9, label %183
    i32 3, label %183
    i32 10, label %183
  ]

14:                                               ; preds = %2
  call void @llvm.lifetime.start.p0(i64 4, ptr %6) #9
  store i32 0, ptr %6, align 4, !tbaa !4
  br label %15

15:                                               ; preds = %30, %14
  %16 = load ptr, ptr %3, align 8, !tbaa !47
  %17 = getelementptr inbounds nuw %struct._Node, ptr %16, i32 0, i32 0
  %18 = getelementptr inbounds nuw %struct.ConsAltNode, ptr %17, i32 0, i32 3
  %19 = load ptr, ptr %18, align 8, !tbaa !32
  %20 = load i32, ptr %4, align 4, !tbaa !4
  %21 = call i32 @mostly_just_anychar(ptr noundef %19, i32 noundef %20)
  store i32 %21, ptr %5, align 4, !tbaa !4
  %22 = load i32, ptr %5, align 4, !tbaa !4
  %23 = icmp eq i32 %22, 0
  br i1 %23, label %24, label %25

24:                                               ; preds = %15
  br label %36

25:                                               ; preds = %15
  %26 = load i32, ptr %5, align 4, !tbaa !4
  %27 = icmp eq i32 %26, 1
  br i1 %27, label %28, label %29

28:                                               ; preds = %25
  store i32 1, ptr %6, align 4, !tbaa !4
  br label %29

29:                                               ; preds = %28, %25
  br label %30

30:                                               ; preds = %29
  %31 = load ptr, ptr %3, align 8, !tbaa !47
  %32 = getelementptr inbounds nuw %struct._Node, ptr %31, i32 0, i32 0
  %33 = getelementptr inbounds nuw %struct.ConsAltNode, ptr %32, i32 0, i32 4
  %34 = load ptr, ptr %33, align 8, !tbaa !32
  store ptr %34, ptr %3, align 8, !tbaa !47
  %35 = icmp ne ptr %34, null
  br i1 %35, label %15, label %36, !llvm.loop !346

36:                                               ; preds = %30, %24
  %37 = load i32, ptr %5, align 4, !tbaa !4
  %38 = icmp eq i32 %37, 2
  br i1 %38, label %39, label %44

39:                                               ; preds = %36
  %40 = load i32, ptr %6, align 4, !tbaa !4
  %41 = icmp eq i32 %40, 1
  br i1 %41, label %42, label %43

42:                                               ; preds = %39
  store i32 1, ptr %5, align 4, !tbaa !4
  br label %43

43:                                               ; preds = %42, %39
  br label %44

44:                                               ; preds = %43, %36
  call void @llvm.lifetime.end.p0(i64 4, ptr %6) #9
  br label %185

45:                                               ; preds = %2
  store i32 2, ptr %5, align 4, !tbaa !4
  br label %46

46:                                               ; preds = %57, %45
  %47 = load ptr, ptr %3, align 8, !tbaa !47
  %48 = getelementptr inbounds nuw %struct._Node, ptr %47, i32 0, i32 0
  %49 = getelementptr inbounds nuw %struct.ConsAltNode, ptr %48, i32 0, i32 3
  %50 = load ptr, ptr %49, align 8, !tbaa !32
  %51 = load i32, ptr %4, align 4, !tbaa !4
  %52 = call i32 @mostly_just_anychar(ptr noundef %50, i32 noundef %51)
  store i32 %52, ptr %5, align 4, !tbaa !4
  %53 = load i32, ptr %5, align 4, !tbaa !4
  %54 = icmp eq i32 %53, 1
  br i1 %54, label %55, label %56

55:                                               ; preds = %46
  br label %63

56:                                               ; preds = %46
  br label %57

57:                                               ; preds = %56
  %58 = load ptr, ptr %3, align 8, !tbaa !47
  %59 = getelementptr inbounds nuw %struct._Node, ptr %58, i32 0, i32 0
  %60 = getelementptr inbounds nuw %struct.ConsAltNode, ptr %59, i32 0, i32 4
  %61 = load ptr, ptr %60, align 8, !tbaa !32
  store ptr %61, ptr %3, align 8, !tbaa !47
  %62 = icmp ne ptr %61, null
  br i1 %62, label %46, label %63, !llvm.loop !347

63:                                               ; preds = %57, %55
  br label %185

64:                                               ; preds = %2
  call void @llvm.lifetime.start.p0(i64 8, ptr %7) #9
  %65 = load ptr, ptr %3, align 8, !tbaa !47
  %66 = getelementptr inbounds nuw %struct._Node, ptr %65, i32 0, i32 0
  store ptr %66, ptr %7, align 8, !tbaa !15
  %67 = load ptr, ptr %7, align 8, !tbaa !15
  %68 = getelementptr inbounds nuw %struct.QuantNode, ptr %67, i32 0, i32 5
  %69 = load i32, ptr %68, align 4, !tbaa !154
  %70 = icmp eq i32 %69, 0
  br i1 %70, label %71, label %72

71:                                               ; preds = %64
  store i32 2, ptr %5, align 4, !tbaa !4
  br label %99

72:                                               ; preds = %64
  %73 = load i32, ptr %4, align 4, !tbaa !4
  %74 = icmp eq i32 %73, 0
  br i1 %74, label %75, label %92

75:                                               ; preds = %72
  %76 = load ptr, ptr %7, align 8, !tbaa !15
  %77 = getelementptr inbounds nuw %struct.QuantNode, ptr %76, i32 0, i32 6
  %78 = load i32, ptr %77, align 8, !tbaa !155
  %79 = icmp ne i32 %78, 0
  br i1 %79, label %80, label %91

80:                                               ; preds = %75
  %81 = load ptr, ptr %7, align 8, !tbaa !15
  %82 = getelementptr inbounds nuw %struct.QuantNode, ptr %81, i32 0, i32 5
  %83 = load i32, ptr %82, align 4, !tbaa !154
  %84 = icmp eq i32 %83, -1
  br i1 %84, label %91, label %85

85:                                               ; preds = %80
  %86 = load ptr, ptr %7, align 8, !tbaa !15
  %87 = getelementptr inbounds nuw %struct.QuantNode, ptr %86, i32 0, i32 5
  %88 = load i32, ptr %87, align 4, !tbaa !154
  %89 = icmp sle i32 %88, 20
  br i1 %89, label %90, label %91

90:                                               ; preds = %85
  store i32 1, ptr %4, align 4, !tbaa !4
  br label %91

91:                                               ; preds = %90, %85, %80, %75
  br label %92

92:                                               ; preds = %91, %72
  %93 = load ptr, ptr %3, align 8, !tbaa !47
  %94 = getelementptr inbounds nuw %struct._Node, ptr %93, i32 0, i32 0
  %95 = getelementptr inbounds nuw %struct.anon.36, ptr %94, i32 0, i32 3
  %96 = load ptr, ptr %95, align 8, !tbaa !32
  %97 = load i32, ptr %4, align 4, !tbaa !4
  %98 = call i32 @mostly_just_anychar(ptr noundef %96, i32 noundef %97)
  store i32 %98, ptr %5, align 4, !tbaa !4
  br label %99

99:                                               ; preds = %92, %71
  call void @llvm.lifetime.end.p0(i64 8, ptr %7) #9
  br label %185

100:                                              ; preds = %2
  %101 = load ptr, ptr %3, align 8, !tbaa !47
  %102 = getelementptr inbounds nuw %struct._Node, ptr %101, i32 0, i32 0
  %103 = getelementptr inbounds nuw %struct.AnchorNode, ptr %102, i32 0, i32 4
  %104 = load i32, ptr %103, align 8, !tbaa !32
  switch i32 %104, label %106 [
    i32 1, label %105
    i32 2, label %105
    i32 4, label %105
    i32 8, label %105
    i32 65536, label %105
  ]

105:                                              ; preds = %100, %100, %100, %100, %100
  store i32 2, ptr %5, align 4, !tbaa !4
  br label %107

106:                                              ; preds = %100
  br label %107

107:                                              ; preds = %106, %105
  br label %185

108:                                              ; preds = %2
  call void @llvm.lifetime.start.p0(i64 8, ptr %8) #9
  %109 = load ptr, ptr %3, align 8, !tbaa !47
  %110 = getelementptr inbounds nuw %struct._Node, ptr %109, i32 0, i32 0
  store ptr %110, ptr %8, align 8, !tbaa !15
  %111 = load ptr, ptr %8, align 8, !tbaa !15
  %112 = getelementptr inbounds nuw %struct.BagNode, ptr %111, i32 0, i32 4
  %113 = load i32, ptr %112, align 8, !tbaa !156
  %114 = icmp eq i32 %113, 3
  br i1 %114, label %115, label %146

115:                                              ; preds = %108
  %116 = load ptr, ptr %8, align 8, !tbaa !15
  %117 = getelementptr inbounds nuw %struct.BagNode, ptr %116, i32 0, i32 5
  %118 = getelementptr inbounds nuw %struct.anon.40, ptr %117, i32 0, i32 0
  %119 = load ptr, ptr %118, align 8, !tbaa !32
  %120 = icmp ne ptr %119, null
  br i1 %120, label %121, label %132

121:                                              ; preds = %115
  %122 = load ptr, ptr %8, align 8, !tbaa !15
  %123 = getelementptr inbounds nuw %struct.BagNode, ptr %122, i32 0, i32 5
  %124 = getelementptr inbounds nuw %struct.anon.40, ptr %123, i32 0, i32 0
  %125 = load ptr, ptr %124, align 8, !tbaa !32
  %126 = load i32, ptr %4, align 4, !tbaa !4
  %127 = call i32 @mostly_just_anychar(ptr noundef %125, i32 noundef %126)
  store i32 %127, ptr %5, align 4, !tbaa !4
  %128 = load i32, ptr %5, align 4, !tbaa !4
  %129 = icmp eq i32 %128, 1
  br i1 %129, label %130, label %131

130:                                              ; preds = %121
  store i32 2, ptr %9, align 4
  br label %154

131:                                              ; preds = %121
  br label %132

132:                                              ; preds = %131, %115
  %133 = load ptr, ptr %8, align 8, !tbaa !15
  %134 = getelementptr inbounds nuw %struct.BagNode, ptr %133, i32 0, i32 5
  %135 = getelementptr inbounds nuw %struct.anon.40, ptr %134, i32 0, i32 1
  %136 = load ptr, ptr %135, align 8, !tbaa !32
  %137 = icmp ne ptr %136, null
  br i1 %137, label %138, label %145

138:                                              ; preds = %132
  %139 = load ptr, ptr %8, align 8, !tbaa !15
  %140 = getelementptr inbounds nuw %struct.BagNode, ptr %139, i32 0, i32 5
  %141 = getelementptr inbounds nuw %struct.anon.40, ptr %140, i32 0, i32 1
  %142 = load ptr, ptr %141, align 8, !tbaa !32
  %143 = load i32, ptr %4, align 4, !tbaa !4
  %144 = call i32 @mostly_just_anychar(ptr noundef %142, i32 noundef %143)
  store i32 %144, ptr %5, align 4, !tbaa !4
  br label %145

145:                                              ; preds = %138, %132
  br label %153

146:                                              ; preds = %108
  %147 = load ptr, ptr %3, align 8, !tbaa !47
  %148 = getelementptr inbounds nuw %struct._Node, ptr %147, i32 0, i32 0
  %149 = getelementptr inbounds nuw %struct.anon.36, ptr %148, i32 0, i32 3
  %150 = load ptr, ptr %149, align 8, !tbaa !32
  %151 = load i32, ptr %4, align 4, !tbaa !4
  %152 = call i32 @mostly_just_anychar(ptr noundef %150, i32 noundef %151)
  store i32 %152, ptr %5, align 4, !tbaa !4
  br label %153

153:                                              ; preds = %146, %145
  store i32 0, ptr %9, align 4
  br label %154

154:                                              ; preds = %153, %130
  call void @llvm.lifetime.end.p0(i64 8, ptr %8) #9
  %155 = load i32, ptr %9, align 4
  switch i32 %155, label %187 [
    i32 0, label %156
    i32 2, label %185
  ]

156:                                              ; preds = %154
  br label %185

157:                                              ; preds = %2
  %158 = load ptr, ptr %3, align 8, !tbaa !47
  %159 = getelementptr inbounds nuw %struct._Node, ptr %158, i32 0, i32 0
  %160 = getelementptr inbounds nuw %struct.CtypeNode, ptr %159, i32 0, i32 3
  %161 = load i32, ptr %160, align 8, !tbaa !32
  %162 = icmp eq i32 %161, -1
  br i1 %162, label %163, label %164

163:                                              ; preds = %157
  store i32 1, ptr %5, align 4, !tbaa !4
  br label %165

164:                                              ; preds = %157
  store i32 0, ptr %5, align 4, !tbaa !4
  br label %165

165:                                              ; preds = %164, %163
  br label %185

166:                                              ; preds = %2
  %167 = load ptr, ptr %3, align 8, !tbaa !47
  %168 = getelementptr inbounds nuw %struct._Node, ptr %167, i32 0, i32 0
  %169 = getelementptr inbounds nuw %struct.StrNode, ptr %168, i32 0, i32 4
  %170 = load ptr, ptr %169, align 8, !tbaa !32
  %171 = load ptr, ptr %3, align 8, !tbaa !47
  %172 = getelementptr inbounds nuw %struct._Node, ptr %171, i32 0, i32 0
  %173 = getelementptr inbounds nuw %struct.StrNode, ptr %172, i32 0, i32 3
  %174 = load ptr, ptr %173, align 8, !tbaa !32
  %175 = ptrtoint ptr %170 to i64
  %176 = ptrtoint ptr %174 to i64
  %177 = sub i64 %175, %176
  %178 = trunc i64 %177 to i32
  %179 = icmp eq i32 %178, 0
  br i1 %179, label %180, label %181

180:                                              ; preds = %166
  store i32 2, ptr %5, align 4, !tbaa !4
  br label %185

181:                                              ; preds = %166
  br label %182

182:                                              ; preds = %2, %181
  store i32 0, ptr %5, align 4, !tbaa !4
  br label %185

183:                                              ; preds = %2, %2, %2
  store i32 2, ptr %5, align 4, !tbaa !4
  br label %185

184:                                              ; preds = %2
  br label %185

185:                                              ; preds = %184, %183, %182, %180, %165, %156, %154, %107, %99, %63, %44
  %186 = load i32, ptr %5, align 4, !tbaa !4
  store i32 1, ptr %9, align 4
  call void @llvm.lifetime.end.p0(i64 4, ptr %5) #9
  ret i32 %186

187:                                              ; preds = %154
  unreachable
}