; Function Attrs: nofree nosync nounwind memory(read, inaccessiblemem: none) uwtable
define internal fastcc range(i32 0, 3) i32 @mostly_just_anychar(ptr noundef readonly captures(none) %0, i32 noundef range(i32 0, 2) %1) unnamed_addr #17 {
  br label %tailrecurse.outer

tailrecurse.outer:                                ; preds = %32, %2
  %.tr.ph = phi ptr [ %34, %32 ], [ %0, %2 ]
  %.tr62.ph = phi i32 [ %.036, %32 ], [ %1, %2 ]
  br label %tailrecurse

tailrecurse:                                      ; preds = %tailrecurse.backedge, %tailrecurse.outer
  %.tr = phi ptr [ %.tr.ph, %tailrecurse.outer ], [ %.tr.be, %tailrecurse.backedge ]
  %3 = load i32, ptr %.tr, align 8, !tbaa !20
  switch i32 %3, label %.loopexit.loopexit139 [
    i32 7, label %.preheader
    i32 8, label %.preheader63
    i32 4, label %21
    i32 6, label %35
    i32 5, label %39
    i32 2, label %55
    i32 0, label %59
    i32 1, label %.loopexit66
    i32 9, label %.loopexit
    i32 3, label %.loopexit
    i32 10, label %.loopexit
  ]

.preheader:                                       ; preds = %tailrecurse, %8
  %.037 = phi i32 [ %.2, %8 ], [ 0, %tailrecurse ]
  %.0 = phi ptr [ %10, %8 ], [ %.tr, %tailrecurse ]
  %4 = getelementptr inbounds nuw i8, ptr %.0, i64 16
  %5 = load ptr, ptr %4, align 8, !tbaa !20
  %6 = tail call fastcc i32 @mostly_just_anychar(ptr noundef %5, i32 noundef %.tr62.ph)
  switch i32 %6, label %8 [
    i32 0, label %11
    i32 1, label %7
  ]

7:                                                ; preds = %.preheader
  br label %8

8:                                                ; preds = %.preheader, %7
  %.2 = phi i32 [ 1, %7 ], [ %.037, %.preheader ]
  %9 = getelementptr inbounds nuw i8, ptr %.0, i64 24
  %10 = load ptr, ptr %9, align 8, !tbaa !20
  %.not57 = icmp eq ptr %10, null
  br i1 %.not57, label %11, label %.preheader, !llvm.loop !328

11:                                               ; preds = %.preheader, %8
  %.138 = phi i32 [ %.037, %.preheader ], [ %.2, %8 ]
  %12 = icmp eq i32 %6, 2
  %13 = icmp eq i32 %.138, 1
  %or.cond = select i1 %12, i1 %13, i1 false
  %spec.store.select = select i1 %or.cond, i32 1, i32 %6
  br label %.loopexit

.preheader63:                                     ; preds = %tailrecurse, %18
  %.1 = phi ptr [ %20, %18 ], [ %.tr, %tailrecurse ]
  %14 = getelementptr inbounds nuw i8, ptr %.1, i64 16
  %15 = load ptr, ptr %14, align 8, !tbaa !20
  %16 = tail call fastcc i32 @mostly_just_anychar(ptr noundef %15, i32 noundef %.tr62.ph)
  %17 = icmp eq i32 %16, 1
  br i1 %17, label %.loopexit, label %18

18:                                               ; preds = %.preheader63
  %19 = getelementptr inbounds nuw i8, ptr %.1, i64 24
  %20 = load ptr, ptr %19, align 8, !tbaa !20
  %.not56 = icmp eq ptr %20, null
  br i1 %.not56, label %.loopexit, label %.preheader63, !llvm.loop !329

21:                                               ; preds = %tailrecurse
  %22 = getelementptr inbounds nuw i8, ptr %.tr, i64 28
  %23 = load i32, ptr %22, align 4, !tbaa !138
  %24 = icmp eq i32 %23, 0
  br i1 %24, label %.loopexit, label %25

25:                                               ; preds = %21
  %26 = icmp eq i32 %.tr62.ph, 0
  br i1 %26, label %27, label %32

27:                                               ; preds = %25
  %28 = getelementptr inbounds nuw i8, ptr %.tr, i64 32
  %29 = load i32, ptr %28, align 8, !tbaa !142
  %.not55 = icmp ne i32 %29, 0
  %30 = icmp ne i32 %23, -1
  %or.cond58.not61 = and i1 %30, %.not55
  %31 = icmp slt i32 %23, 21
  %or.cond59 = and i1 %31, %or.cond58.not61
  %spec.select = zext i1 %or.cond59 to i32
  br label %32

32:                                               ; preds = %27, %25
  %.036 = phi i32 [ 1, %25 ], [ %spec.select, %27 ]
  %33 = getelementptr inbounds nuw i8, ptr %.tr, i64 16
  %34 = load ptr, ptr %33, align 8, !tbaa !20
  br label %tailrecurse.outer

35:                                               ; preds = %tailrecurse
  %36 = getelementptr inbounds nuw i8, ptr %.tr, i64 24
  %37 = load i32, ptr %36, align 8, !tbaa !20
  switch i32 %37, label %.loopexit [
    i32 1, label %38
    i32 2, label %38
    i32 4, label %38
    i32 8, label %38
    i32 65536, label %38
  ]

38:                                               ; preds = %35, %35, %35, %35, %35
  br label %.loopexit

39:                                               ; preds = %tailrecurse
  %40 = getelementptr inbounds nuw i8, ptr %.tr, i64 24
  %41 = load i32, ptr %40, align 8, !tbaa !98
  %42 = icmp eq i32 %41, 3
  br i1 %42, label %43, label %52

43:                                               ; preds = %39
  %44 = getelementptr inbounds nuw i8, ptr %.tr, i64 32
  %45 = load ptr, ptr %44, align 8, !tbaa !20
  %.not = icmp eq ptr %45, null
  br i1 %.not, label %49, label %46

46:                                               ; preds = %43
  %47 = tail call fastcc i32 @mostly_just_anychar(ptr noundef nonnull %45, i32 noundef %.tr62.ph)
  %48 = icmp eq i32 %47, 1
  br i1 %48, label %.loopexit.loopexit139, label %49

49:                                               ; preds = %46, %43
  %.241 = phi i32 [ %47, %46 ], [ 0, %43 ]
  %50 = getelementptr inbounds nuw i8, ptr %.tr, i64 40
  %51 = load ptr, ptr %50, align 8, !tbaa !20
  %.not54 = icmp eq ptr %51, null
  br i1 %.not54, label %.loopexit.loopexit139, label %tailrecurse.backedge

52:                                               ; preds = %39
  %53 = getelementptr inbounds nuw i8, ptr %.tr, i64 16
  %54 = load ptr, ptr %53, align 8, !tbaa !20
  br label %tailrecurse.backedge

tailrecurse.backedge:                             ; preds = %52, %49
  %.tr.be = phi ptr [ %54, %52 ], [ %51, %49 ]
  br label %tailrecurse

55:                                               ; preds = %tailrecurse
  %56 = getelementptr inbounds nuw i8, ptr %.tr, i64 16
  %57 = load i32, ptr %56, align 8, !tbaa !20
  %58 = icmp eq i32 %57, -1
  %. = zext i1 %58 to i32
  br label %.loopexit

59:                                               ; preds = %tailrecurse
  %60 = getelementptr inbounds nuw i8, ptr %.tr, i64 24
  %61 = load ptr, ptr %60, align 8, !tbaa !20
  %62 = getelementptr inbounds nuw i8, ptr %.tr, i64 16
  %63 = load ptr, ptr %62, align 8, !tbaa !20
  %64 = ptrtoint ptr %61 to i64
  %65 = ptrtoint ptr %63 to i64
  %66 = sub i64 %64, %65
  %67 = and i64 %66, 4294967295
  %68 = icmp eq i64 %67, 0
  br i1 %68, label %.loopexit, label %.loopexit66

.loopexit66:                                      ; preds = %tailrecurse, %59
  br label %.loopexit

.loopexit.loopexit139:                            ; preds = %tailrecurse, %49, %46
  %.039.ph140 = phi i32 [ %.241, %49 ], [ 1, %46 ], [ 0, %tailrecurse ]
  br label %.loopexit

.loopexit:                                        ; preds = %21, %18, %.preheader63, %tailrecurse, %tailrecurse, %tailrecurse, %.loopexit.loopexit139, %59, %55, %38, %35, %.loopexit66, %11
  %.039 = phi i32 [ 0, %.loopexit66 ], [ 0, %35 ], [ 2, %38 ], [ %spec.store.select, %11 ], [ %., %55 ], [ 2, %59 ], [ %.039.ph140, %.loopexit.loopexit139 ], [ 2, %tailrecurse ], [ 2, %tailrecurse ], [ 2, %tailrecurse ], [ %16, %18 ], [ 1, %.preheader63 ], [ 2, %21 ]
  ret i32 %.039
}